target datalayout = "e-m:e-p270:32:32-p271:32:32-p272:64:64-i64:64-i128:128-f80:128-n8:16:32:64-S128"
target triple = "x86_64-pc-linux-gnu"

@table_states_not_ready = internal global ptr null, align 8

; Function Attrs: nounwind uwtable
define dso_local zeroext i1 @AllTablesyncsReady() #0 {
  %1 = alloca i8, align 1
  %2 = alloca i8, align 1
  call void @llvm.lifetime.start.p0(i64 1, ptr %1) #12
  store i8 0, ptr %1, align 1
  call void @llvm.lifetime.start.p0(i64 1, ptr %2) #12
  store i8 0, ptr %2, align 1
  %3 = call zeroext i1 @FetchTableStates(ptr noundef %1)
  %4 = zext i1 %3 to i8
  store i8 %4, ptr %2, align 1
  %5 = load i8, ptr %1, align 1, !range !6, !noundef !7
  %6 = trunc i8 %5 to i1
  br i1 %6, label %7, label %9

7:                                                ; preds = %0
  call void @CommitTransactionCommand()
  %8 = call i64 @pgstat_report_stat(i1 noundef zeroext true)
  br label %9

9:                                                ; preds = %7, %0
  %10 = load i8, ptr %2, align 1, !range !6, !noundef !7
  %11 = trunc i8 %10 to i1
  br i1 %11, label %12, label %15

12:                                               ; preds = %9
  %13 = load ptr, ptr @table_states_not_ready, align 8
  %14 = icmp eq ptr %13, null
  br label %15

15:                                               ; preds = %12, %9
  %16 = phi i1 [ false, %9 ], [ %14, %12 ]
  call void @llvm.lifetime.end.p0(i64 1, ptr %2) #12
  call void @llvm.lifetime.end.p0(i64 1, ptr %1) #12
  ret i1 %16
}