; Function Attrs: nounwind uwtable
define dso_local zeroext i1 @AllTablesyncsReady() local_unnamed_addr #1 {
  %1 = alloca i8, align 1
  call void @llvm.lifetime.start.p0(i64 1, ptr nonnull %1) #12
  %2 = call fastcc zeroext i1 @FetchTableStates(ptr noundef %1)
  %3 = load i8, ptr %1, align 1, !range !9, !noundef !10
  %4 = trunc nuw i8 %3 to i1
  br i1 %4, label %5, label %7

5:                                                ; preds = %0
  tail call void @CommitTransactionCommand() #12
  %6 = tail call i64 @pgstat_report_stat(i1 noundef zeroext true) #12
  br label %7

7:                                                ; preds = %5, %0
  %8 = load ptr, ptr @table_states_not_ready, align 8
  %9 = icmp eq ptr %8, null
  %10 = select i1 %2, i1 %9, i1 false
  call void @llvm.lifetime.end.p0(i64 1, ptr nonnull %1) #12
  ret i1 %10
}